; Function Attrs: mustprogress nofree norecurse nosync nounwind memory(argmem: readwrite) uwtable
define hidden void @_ZN3sat6clause6shrinkEj(ptr nocapture noundef nonnull align 4 dereferenceable(20) %this, i32 noundef %num_lits) local_unnamed_addr #3 align 2 {
entry:
  %m_size = getelementptr inbounds i8, ptr %this, i64 4
  %0 = load i32, ptr %m_size, align 4
  %cmp = icmp ugt i32 %0, %num_lits
  br i1 %cmp, label %if.then, label %if.end

if.then:                                          ; preds = %entry
  store i32 %num_lits, ptr %m_size, align 4
  %m_strengthened.i = getelementptr inbounds i8, ptr %this, i64 16
  %bf.load.i = load i32, ptr %m_strengthened.i, align 4
  %bf.set.i = or i32 %bf.load.i, 1
  store i32 %bf.set.i, ptr %m_strengthened.i, align 4
  %m_lits.i.i = getelementptr inbounds i8, ptr %this, i64 20
  %cmp4.not.i.i.i = icmp eq i32 %num_lits, 0
  br i1 %cmp4.not.i.i.i, label %_ZN3sat6clause17mark_strengthenedEv.exit, label %for.body.preheader.i.i.i

for.body.preheader.i.i.i:                         ; preds = %if.then
  %wide.trip.count.i.i.i = zext i32 %num_lits to i64
  br label %for.body.i.i.i

for.body.i.i.i:                                   ; preds = %for.body.i.i.i, %for.body.preheader.i.i.i
  %indvars.iv.i.i.i = phi i64 [ 0, %for.body.preheader.i.i.i ], [ %indvars.iv.next.i.i.i, %for.body.i.i.i ]
  %retval.sroa.0.05.i.i.i = phi i32 [ 0, %for.body.preheader.i.i.i ], [ %or.i.i.i.i, %for.body.i.i.i ]
  %arrayidx.i.i.i = getelementptr inbounds %"class.sat::literal", ptr %m_lits.i.i, i64 %indvars.iv.i.i.i
  %1 = load i32, ptr %arrayidx.i.i.i, align 4
  %shr.i.i.i.i = lshr i32 %1, 1
  %and.i.i.i.i.i.i = and i32 %shr.i.i.i.i, 31
  %shl.i.i.i.i.i.i = shl nuw i32 1, %and.i.i.i.i.i.i
  %or.i.i.i.i = or i32 %shl.i.i.i.i.i.i, %retval.sroa.0.05.i.i.i
  %indvars.iv.next.i.i.i = add nuw nsw i64 %indvars.iv.i.i.i, 1
  %exitcond.not.i.i.i = icmp eq i64 %indvars.iv.next.i.i.i, %wide.trip.count.i.i.i
  br i1 %exitcond.not.i.i.i, label %_ZN3sat6clause17mark_strengthenedEv.exit, label %for.body.i.i.i, !llvm.loop !4

_ZN3sat6clause17mark_strengthenedEv.exit:         ; preds = %for.body.i.i.i, %if.then
  %retval.sroa.0.0.lcssa.i.i.i = phi i32 [ 0, %if.then ], [ %or.i.i.i.i, %for.body.i.i.i ]
  %m_approx.i.i = getelementptr inbounds i8, ptr %this, i64 12
  store i32 %retval.sroa.0.0.lcssa.i.i.i, ptr %m_approx.i.i, align 4
  br label %if.end

if.end:                                           ; preds = %_ZN3sat6clause17mark_strengthenedEv.exit, %entry
  ret void
}